target datalayout = "e-m:e-p270:32:32-p271:32:32-p272:64:64-i64:64-i128:128-f80:128-n8:16:32:64-S128"
target triple = "x86_64-pc-linux-gnu"

%class.UatModel = type { %class.QAbstractTableModel, ptr, i8, %class.QList, %class.QList.0 }
%class.QAbstractTableModel = type { %class.QAbstractItemModel }
%class.QAbstractItemModel = type { %class.QObject }
%class.QObject = type { ptr, %class.QScopedPointer }
%class.QScopedPointer = type { ptr }
%class.QList = type { %struct.QArrayDataPointer }
%struct.QArrayDataPointer = type { ptr, ptr, i64 }
%class.QList.0 = type { %struct.QArrayDataPointer.3 }
%struct.QArrayDataPointer.3 = type { ptr, ptr, i64 }
%struct.epan_uat = type { ptr, i64, ptr, i8, ptr, i32, ptr, ptr, ptr, ptr, ptr, ptr, ptr, ptr, ptr, i32, ptr, ptr, ptr, i8, ptr, ptr, i8 }
%struct._GArray = type { ptr, i32 }
%struct._uat_field_t = type { ptr, ptr, i32, %struct.anon, %struct.anon.9, ptr, ptr, ptr }
%struct.anon = type { ptr, ptr, ptr }
%struct.anon.9 = type { ptr, ptr, ptr }

; Function Attrs: mustprogress null_pointer_is_valid sspstrong uwtable
define noundef zeroext i1 @_ZNK8UatModel10checkFieldEiiPPc(ptr noundef align 8 dereferenceable_or_null(80) %0, i32 noundef %1, i32 noundef %2, ptr noundef %3) #0 align 2 {
  %5 = alloca i1, align 1
  %6 = alloca ptr, align 8
  %7 = alloca i32, align 4
  %8 = alloca i32, align 4
  %9 = alloca ptr, align 8
  %10 = alloca ptr, align 8
  %11 = alloca ptr, align 8
  %12 = alloca i32, align 4
  %13 = alloca ptr, align 8
  %14 = alloca i32, align 4
  %15 = alloca i8, align 1
  store ptr %0, ptr %6, align 8
  store i32 %1, ptr %7, align 4
  store i32 %2, ptr %8, align 4
  store ptr %3, ptr %9, align 8
  %16 = load ptr, ptr %6, align 8
  call void @llvm.lifetime.start.p0(i64 8, ptr %10) #23
  %17 = getelementptr inbounds nuw %class.UatModel, ptr %16, i32 0, i32 1
  %18 = load ptr, ptr %17, align 8
  %19 = getelementptr inbounds nuw %struct.epan_uat, ptr %18, i32 0, i32 13
  %20 = load ptr, ptr %19, align 8
  %21 = load i32, ptr %8, align 4
  %22 = sext i32 %21 to i64
  %23 = getelementptr %struct._uat_field_t, ptr %20, i64 %22
  store ptr %23, ptr %10, align 8
  call void @llvm.lifetime.start.p0(i64 8, ptr %11) #23
  %24 = getelementptr inbounds nuw %class.UatModel, ptr %16, i32 0, i32 1
  %25 = load ptr, ptr %24, align 8
  %26 = getelementptr inbounds nuw %struct.epan_uat, ptr %25, i32 0, i32 17
  %27 = load ptr, ptr %26, align 8
  %28 = getelementptr inbounds nuw %struct._GArray, ptr %27, i32 0, i32 0
  %29 = load ptr, ptr %28, align 8
  %30 = getelementptr inbounds nuw %class.UatModel, ptr %16, i32 0, i32 1
  %31 = load ptr, ptr %30, align 8
  %32 = getelementptr inbounds nuw %struct.epan_uat, ptr %31, i32 0, i32 1
  %33 = load i64, ptr %32, align 8
  %34 = load i32, ptr %7, align 4
  %35 = sext i32 %34 to i64
  %36 = mul i64 %33, %35
  %37 = getelementptr i8, ptr %29, i64 %36
  store ptr %37, ptr %11, align 8
  %38 = load ptr, ptr %10, align 8
  %39 = getelementptr inbounds nuw %struct._uat_field_t, ptr %38, i32 0, i32 3
  %40 = getelementptr inbounds nuw %struct.anon, ptr %39, i32 0, i32 0
  %41 = load ptr, ptr %40, align 8
  %42 = icmp ne ptr %41, null
  br i1 %42, label %44, label %43

43:                                               ; preds = %4
  store i1 true, ptr %5, align 1
  store i32 1, ptr %12, align 4
  br label %77

44:                                               ; preds = %4
  call void @llvm.lifetime.start.p0(i64 8, ptr %13) #23
  store ptr null, ptr %13, align 8
  call void @llvm.lifetime.start.p0(i64 4, ptr %14) #23
  %45 = load ptr, ptr %10, align 8
  %46 = getelementptr inbounds nuw %struct._uat_field_t, ptr %45, i32 0, i32 3
  %47 = getelementptr inbounds nuw %struct.anon, ptr %46, i32 0, i32 2
  %48 = load ptr, ptr %47, align 8
  %49 = load ptr, ptr %11, align 8
  %50 = load ptr, ptr %10, align 8
  %51 = getelementptr inbounds nuw %struct._uat_field_t, ptr %50, i32 0, i32 4
  %52 = getelementptr inbounds nuw %struct.anon.9, ptr %51, i32 0, i32 2
  %53 = load ptr, ptr %52, align 8
  %54 = load ptr, ptr %10, align 8
  %55 = getelementptr inbounds nuw %struct._uat_field_t, ptr %54, i32 0, i32 5
  %56 = load ptr, ptr %55, align 8
  call void %48(ptr noundef %49, ptr noundef %13, ptr noundef %14, ptr noundef %53, ptr noundef %56)
  call void @llvm.lifetime.start.p0(i64 1, ptr %15) #23
  %57 = load ptr, ptr %10, align 8
  %58 = getelementptr inbounds nuw %struct._uat_field_t, ptr %57, i32 0, i32 3
  %59 = getelementptr inbounds nuw %struct.anon, ptr %58, i32 0, i32 0
  %60 = load ptr, ptr %59, align 8
  %61 = load ptr, ptr %11, align 8
  %62 = load ptr, ptr %13, align 8
  %63 = load i32, ptr %14, align 4
  %64 = load ptr, ptr %10, align 8
  %65 = getelementptr inbounds nuw %struct._uat_field_t, ptr %64, i32 0, i32 4
  %66 = getelementptr inbounds nuw %struct.anon.9, ptr %65, i32 0, i32 0
  %67 = load ptr, ptr %66, align 8
  %68 = load ptr, ptr %10, align 8
  %69 = getelementptr inbounds nuw %struct._uat_field_t, ptr %68, i32 0, i32 5
  %70 = load ptr, ptr %69, align 8
  %71 = load ptr, ptr %9, align 8
  %72 = call noundef zeroext i1 %60(ptr noundef %61, ptr noundef %62, i32 noundef %63, ptr noundef %67, ptr noundef %70, ptr noundef %71)
  %73 = zext i1 %72 to i8
  store i8 %73, ptr %15, align 1
  %74 = load ptr, ptr %13, align 8
  call void @g_free(ptr noundef %74)
  %75 = load i8, ptr %15, align 1, !range !8, !noundef !9
  %76 = trunc i8 %75 to i1
  store i1 %76, ptr %5, align 1
  store i32 1, ptr %12, align 4
  call void @llvm.lifetime.end.p0(i64 1, ptr %15) #23
  call void @llvm.lifetime.end.p0(i64 4, ptr %14) #23
  call void @llvm.lifetime.end.p0(i64 8, ptr %13) #23
  br label %77

77:                                               ; preds = %44, %43
  call void @llvm.lifetime.end.p0(i64 8, ptr %11) #23
  call void @llvm.lifetime.end.p0(i64 8, ptr %10) #23
  %78 = load i1, ptr %5, align 1
  ret i1 %78
}