; Function Attrs: mustprogress null_pointer_is_valid sspstrong uwtable
define noundef zeroext i1 @_ZNK8UatModel10checkFieldEiiPPc(ptr noundef readonly align 8 captures(none) dereferenceable_or_null(80) %0, i32 noundef %1, i32 noundef %2, ptr noundef %3) local_unnamed_addr #0 align 2 {
  %5 = alloca ptr, align 8
  %6 = alloca i32, align 4
  %7 = getelementptr inbounds nuw i8, ptr %0, i64 16
  %8 = load ptr, ptr %7, align 8
  %9 = getelementptr inbounds nuw i8, ptr %8, i64 104
  %10 = load ptr, ptr %9, align 8
  %11 = sext i32 %2 to i64
  %12 = getelementptr %struct._uat_field_t, ptr %10, i64 %11
  %13 = getelementptr inbounds nuw i8, ptr %12, i64 24
  %14 = load ptr, ptr %13, align 8
  %.not = icmp eq ptr %14, null
  br i1 %.not, label %38, label %15

15:                                               ; preds = %4
  %16 = getelementptr inbounds nuw i8, ptr %8, i64 136
  %17 = load ptr, ptr %16, align 8
  %18 = load ptr, ptr %17, align 8
  %19 = getelementptr inbounds nuw i8, ptr %8, i64 8
  %20 = load i64, ptr %19, align 8
  %21 = sext i32 %1 to i64
  %22 = mul i64 %20, %21
  %23 = getelementptr i8, ptr %18, i64 %22
  call void @llvm.lifetime.start.p0(i64 8, ptr nonnull %5) #24
  store ptr null, ptr %5, align 8
  call void @llvm.lifetime.start.p0(i64 4, ptr nonnull %6) #24
  %24 = getelementptr inbounds nuw i8, ptr %12, i64 40
  %25 = load ptr, ptr %24, align 8
  %26 = getelementptr inbounds nuw i8, ptr %12, i64 48
  %27 = getelementptr inbounds nuw i8, ptr %12, i64 64
  %28 = load ptr, ptr %27, align 8
  %29 = getelementptr inbounds nuw i8, ptr %12, i64 72
  %30 = load ptr, ptr %29, align 8
  call void %25(ptr noundef %23, ptr noundef nonnull %5, ptr noundef nonnull %6, ptr noundef %28, ptr noundef %30)
  %31 = load ptr, ptr %13, align 8
  %32 = load ptr, ptr %5, align 8
  %33 = load i32, ptr %6, align 4
  %34 = load ptr, ptr %26, align 8
  %35 = load ptr, ptr %29, align 8
  %36 = call noundef zeroext i1 %31(ptr noundef %23, ptr noundef %32, i32 noundef %33, ptr noundef %34, ptr noundef %35, ptr noundef %3)
  %37 = load ptr, ptr %5, align 8
  call void @g_free(ptr noundef %37)
  call void @llvm.lifetime.end.p0(i64 4, ptr nonnull %6) #24
  call void @llvm.lifetime.end.p0(i64 8, ptr nonnull %5) #24
  br label %38

38:                                               ; preds = %4, %15
  %.0 = phi i1 [ %36, %15 ], [ true, %4 ]
  ret i1 %.0
}